(dp0
S'synchronisation'
p1
I01
sS'account_dir'
p2
V/data/kodi/userdata/addon_data/plugin.dbmc/accounts/Superliminal Dropbox/
p3
sS'syncfreq'
p4
I5
sS'access_token'
p5
VxJoM6e-Q1hAAAAAAAAAAE7yVuFBkE-rNc2TLD4MplBGsA87AdmlMzCxLK7l-TKFY
p6
sS'session_id'
p7
S''
p8
sS'passcodetimeout'
p9
I30
sS'passcode'
p10
g8
sS'syncpath'
p11
V/data/Pictures/
p12
sS'account_name'
p13
VSuperliminal Dropbox
p14
sS'remotepath'
p15
V/TEST-flyers
p16
s.
